target datalayout = "e-m:e-p270:32:32-p271:32:32-p272:64:64-i64:64-i128:128-f80:128-n8:16:32:64-S128"
target triple = "x86_64-pc-linux-gnu"

%struct.Ivy_FraigMan_t_ = type { ptr, i64, i64, ptr, ptr, i32, ptr, ptr, i32, ptr, ptr, %struct.Ivy_FraigList_t_, %struct.Ivy_FraigList_t_, i32, ptr, i32, ptr, ptr, i32, i32, i32, i32, i32, i32, i32, i32, i32, i32, i32, i32, i32, i64, i64, i64, i64, i64, i64, i64, i64, i64, i64 }
%struct.Ivy_FraigList_t_ = type { ptr, ptr, i32 }
%struct.sat_solver_t = type { i32, i32, i32, i32, %struct.Sat_Mem_t_, i32, i32, ptr, ptr, i32, i32, i32, i32, i32, i64, i64, i64, ptr, ptr, i32, i32, %struct.veci_t, ptr, i32, ptr, ptr, ptr, ptr, ptr, ptr, ptr, ptr, %struct.veci_t, %struct.veci_t, %struct.veci_t, %struct.veci_t, ptr, %struct.veci_t, i32, i32, i32, double, double, i32, i32, i32, %struct.stats_t, i32, i32, i32, i32, i32, i64, i64, i64, %struct.veci_t, ptr, i32, i32, i32, %struct.veci_t, %struct.veci_t, i32, i32, i32, ptr, ptr, i32, ptr, i32, i32, %struct.veci_t, %struct.veci_t, %struct.veci_t, ptr, ptr, i32, ptr }
%struct.Sat_Mem_t_ = type { [2 x i32], [2 x i32], [2 x i32], [2 x i32], i32, i32, i32, i32, ptr }
%struct.stats_t = type { i32, i32, i32, i64, i64, i64, i64, i64, i64, i64 }
%struct.veci_t = type { i32, i32, ptr }

@.str.13 = private unnamed_addr constant [8 x i8] c"%d %d  \00", align 1
@.str.14 = private unnamed_addr constant [2 x i8] c"\0A\00", align 1

; Function Attrs: nounwind uwtable
define void @Ivy_FraigPrintActivity(ptr noundef %0) #0 {
  %2 = alloca ptr, align 8
  %3 = alloca i32, align 4
  store ptr %0, ptr %2, align 8, !tbaa !60
  call void @llvm.lifetime.start.p0(i64 4, ptr %3) #12
  store i32 0, ptr %3, align 4, !tbaa !44
  br label %4

4:                                                ; preds = %23, %1
  %5 = load i32, ptr %3, align 4, !tbaa !44
  %6 = load ptr, ptr %2, align 8, !tbaa !60
  %7 = getelementptr inbounds nuw %struct.Ivy_FraigMan_t_, ptr %6, i32 0, i32 15
  %8 = load i32, ptr %7, align 8, !tbaa !204
  %9 = icmp slt i32 %5, %8
  br i1 %9, label %10, label %26

10:                                               ; preds = %4
  %11 = load i32, ptr %3, align 4, !tbaa !44
  %12 = load ptr, ptr %2, align 8, !tbaa !60
  %13 = getelementptr inbounds nuw %struct.Ivy_FraigMan_t_, ptr %12, i32 0, i32 14
  %14 = load ptr, ptr %13, align 8, !tbaa !87
  %15 = getelementptr inbounds nuw %struct.sat_solver_t, ptr %14, i32 0, i32 17
  %16 = load ptr, ptr %15, align 8, !tbaa !205
  %17 = load i32, ptr %3, align 4, !tbaa !44
  %18 = sext i32 %17 to i64
  %19 = getelementptr inbounds i64, ptr %16, i64 %18
  %20 = load i64, ptr %19, align 8, !tbaa !25
  %21 = trunc i64 %20 to i32
  %22 = call i32 (ptr, ...) @printf(ptr noundef @.str.13, i32 noundef %11, i32 noundef %21)
  br label %23

23:                                               ; preds = %10
  %24 = load i32, ptr %3, align 4, !tbaa !44
  %25 = add nsw i32 %24, 1
  store i32 %25, ptr %3, align 4, !tbaa !44
  br label %4, !llvm.loop !206

26:                                               ; preds = %4
  %27 = call i32 (ptr, ...) @printf(ptr noundef @.str.14)
  call void @llvm.lifetime.end.p0(i64 4, ptr %3) #12
  ret void
}