; Function Attrs: nofree nounwind uwtable
define void @Ivy_FraigPrintActivity(ptr noundef readonly captures(none) %0) local_unnamed_addr #15 {
  %2 = getelementptr inbounds nuw i8, ptr %0, i64 152
  %3 = load i32, ptr %2, align 8, !tbaa !131
  %4 = icmp sgt i32 %3, 0
  br i1 %4, label %.lr.ph, label %._crit_edge

.lr.ph:                                           ; preds = %1
  %5 = getelementptr inbounds nuw i8, ptr %0, i64 144
  br label %6

6:                                                ; preds = %.lr.ph, %6
  %indvars.iv = phi i64 [ 0, %.lr.ph ], [ %indvars.iv.next, %6 ]
  %7 = load ptr, ptr %5, align 8, !tbaa !71
  %8 = getelementptr inbounds nuw i8, ptr %7, i64 144
  %9 = load ptr, ptr %8, align 8, !tbaa !206
  %10 = getelementptr inbounds nuw i64, ptr %9, i64 %indvars.iv
  %11 = load i64, ptr %10, align 8, !tbaa !207
  %12 = trunc i64 %11 to i32
  %13 = trunc nuw nsw i64 %indvars.iv to i32
  %14 = tail call i32 (ptr, ...) @printf(ptr noundef nonnull dereferenceable(1) @.str.13, i32 noundef %13, i32 noundef %12)
  %indvars.iv.next = add nuw nsw i64 %indvars.iv, 1
  %15 = load i32, ptr %2, align 8, !tbaa !131
  %16 = sext i32 %15 to i64
  %17 = icmp slt i64 %indvars.iv.next, %16
  br i1 %17, label %6, label %._crit_edge, !llvm.loop !208

._crit_edge:                                      ; preds = %6, %1
  %putchar = tail call i32 @putchar(i32 10)
  ret void
}